; Function Attrs: null_pointer_is_valid sspstrong uwtable
define internal fastcc range(i32 -536870912, 536870912) i32 @HARQ_ACKCH_Region_Allocation_IE(ptr noundef %0, i32 noundef %1, i32 noundef range(i32 3, 514) %2, ptr noundef %3) unnamed_addr #1 {
  %5 = shl i32 %1, 2
  %6 = sdiv i32 %1, 2
  %7 = and i32 %1, 1
  %8 = add nuw nsw i32 %7, 1
  %9 = add nuw nsw i32 %8, %2
  %10 = lshr i32 %9, 1
  %11 = load i32, ptr @ett_302t, align 4
  %12 = tail call ptr @proto_tree_add_subtree(ptr noundef %0, ptr noundef %3, i32 noundef %6, i32 noundef %10, i32 noundef %11, ptr noundef null, ptr noundef nonnull @.str.541)
  %13 = load i32, ptr @hf_ulmap_harq_ackch_region_alloc_extended_2_uiuc, align 4
  %14 = tail call ptr @proto_tree_add_bits_item(ptr noundef %12, i32 noundef %13, ptr noundef %3, i32 noundef %5, i32 noundef 4, i32 noundef 0)
  %15 = add i32 %5, 4
  %16 = load i32, ptr @hf_ulmap_harq_ackch_region_alloc_length, align 4
  %17 = tail call ptr @proto_tree_add_bits_item(ptr noundef %12, i32 noundef %16, ptr noundef %3, i32 noundef %15, i32 noundef 8, i32 noundef 0)
  %18 = add i32 %5, 12
  %19 = load i32, ptr @hf_ulmap_harq_ackch_region_alloc_ofdma_symbol_offset, align 4
  %20 = tail call ptr @proto_tree_add_bits_item(ptr noundef %12, i32 noundef %19, ptr noundef %3, i32 noundef %18, i32 noundef 8, i32 noundef 0)
  %21 = add i32 %5, 20
  %22 = load i32, ptr @hf_ulmap_harq_ackch_region_alloc_subchannel_offset, align 4
  %23 = tail call ptr @proto_tree_add_bits_item(ptr noundef %12, i32 noundef %22, ptr noundef %3, i32 noundef %21, i32 noundef 7, i32 noundef 0)
  %24 = add i32 %5, 27
  %25 = load i32, ptr @hf_ulmap_harq_ackch_region_alloc_num_ofdma_symbols, align 4
  %26 = tail call ptr @proto_tree_add_bits_item(ptr noundef %12, i32 noundef %25, ptr noundef %3, i32 noundef %24, i32 noundef 5, i32 noundef 0)
  %27 = add i32 %5, 32
  %28 = load i32, ptr @hf_ulmap_harq_ackch_region_alloc_num_subchannels, align 4
  %29 = tail call ptr @proto_tree_add_bits_item(ptr noundef %12, i32 noundef %28, ptr noundef %3, i32 noundef %27, i32 noundef 4, i32 noundef 0)
  %30 = add i32 %5, 36
  %31 = ashr exact i32 %30, 2
  ret i32 %31
}